; Function Attrs: mustprogress uwtable
define hidden void @_ZN19OpenColorIO_v2_4dev21OSLShaderClassWrapper21getClassWrapperFooterERKNSt7__cxx1112basic_stringIcSt11char_traitsIcESaIcEEE(ptr noalias sret(%"class.std::__cxx11::basic_string") align 8 %agg.result, ptr noundef nonnull align 8 dereferenceable(40) %this, ptr noundef nonnull align 8 dereferenceable(32) %originalFooter) unnamed_addr #0 align 2 personality ptr @__gxx_personality_v0 {
entry:
  %st = alloca %"class.OpenColorIO_v2_4dev::GpuShaderText", align 8
  %ref.tmp = alloca %"class.OpenColorIO_v2_4dev::GpuShaderText::GpuShaderLine", align 8
  %ref.tmp4 = alloca %"class.OpenColorIO_v2_4dev::GpuShaderText::GpuShaderLine", align 8
  %ref.tmp13 = alloca %"class.OpenColorIO_v2_4dev::GpuShaderText::GpuShaderLine", align 8
  %ref.tmp18 = alloca %"class.std::__cxx11::basic_string", align 8
  call void @_ZN19OpenColorIO_v2_4dev13GpuShaderTextC1ENS_11GpuLanguageE(ptr noundef nonnull align 8 dereferenceable(764) %st, i32 noundef 5)
  invoke void @_ZN19OpenColorIO_v2_4dev13GpuShaderText7newLineEv(ptr nonnull sret(%"class.OpenColorIO_v2_4dev::GpuShaderText::GpuShaderLine") align 8 %ref.tmp, ptr noundef nonnull align 8 dereferenceable(764) %st)
          to label %invoke.cont unwind label %lpad

invoke.cont:                                      ; preds = %entry
  %call = invoke noundef nonnull align 8 dereferenceable(8) ptr @_ZN19OpenColorIO_v2_4dev13GpuShaderText13GpuShaderLinelsEPKc(ptr noundef nonnull align 8 dereferenceable(8) %ref.tmp, ptr noundef nonnull @.str.1)
          to label %invoke.cont3 unwind label %lpad2

invoke.cont3:                                     ; preds = %invoke.cont
  call void @_ZN19OpenColorIO_v2_4dev13GpuShaderText13GpuShaderLineD1Ev(ptr noundef nonnull align 8 dereferenceable(8) %ref.tmp) #13
  invoke void @_ZN19OpenColorIO_v2_4dev13GpuShaderText7newLineEv(ptr nonnull sret(%"class.OpenColorIO_v2_4dev::GpuShaderText::GpuShaderLine") align 8 %ref.tmp4, ptr noundef nonnull align 8 dereferenceable(764) %st)
          to label %invoke.cont5 unwind label %lpad

invoke.cont5:                                     ; preds = %invoke.cont3
  %call8 = invoke noundef nonnull align 8 dereferenceable(8) ptr @_ZN19OpenColorIO_v2_4dev13GpuShaderText13GpuShaderLinelsEPKc(ptr noundef nonnull align 8 dereferenceable(8) %ref.tmp4, ptr noundef nonnull @.str.31)
          to label %invoke.cont7 unwind label %lpad6

invoke.cont7:                                     ; preds = %invoke.cont5
  %m_functionName = getelementptr inbounds i8, ptr %this, i64 8
  %call10 = invoke noundef nonnull align 8 dereferenceable(8) ptr @_ZN19OpenColorIO_v2_4dev13GpuShaderText13GpuShaderLinelsERKNSt7__cxx1112basic_stringIcSt11char_traitsIcESaIcEEE(ptr noundef nonnull align 8 dereferenceable(8) %call8, ptr noundef nonnull align 8 dereferenceable(32) %m_functionName)
          to label %invoke.cont9 unwind label %lpad6

invoke.cont9:                                     ; preds = %invoke.cont7
  %call12 = invoke noundef nonnull align 8 dereferenceable(8) ptr @_ZN19OpenColorIO_v2_4dev13GpuShaderText13GpuShaderLinelsEPKc(ptr noundef nonnull align 8 dereferenceable(8) %call10, ptr noundef nonnull @.str.32)
          to label %invoke.cont11 unwind label %lpad6

invoke.cont11:                                    ; preds = %invoke.cont9
  call void @_ZN19OpenColorIO_v2_4dev13GpuShaderText13GpuShaderLineD1Ev(ptr noundef nonnull align 8 dereferenceable(8) %ref.tmp4) #13
  invoke void @_ZN19OpenColorIO_v2_4dev13GpuShaderText7newLineEv(ptr nonnull sret(%"class.OpenColorIO_v2_4dev::GpuShaderText::GpuShaderLine") align 8 %ref.tmp13, ptr noundef nonnull align 8 dereferenceable(764) %st)
          to label %invoke.cont14 unwind label %lpad

invoke.cont14:                                    ; preds = %invoke.cont11
  %call17 = invoke noundef nonnull align 8 dereferenceable(8) ptr @_ZN19OpenColorIO_v2_4dev13GpuShaderText13GpuShaderLinelsEPKc(ptr noundef nonnull align 8 dereferenceable(8) %ref.tmp13, ptr noundef nonnull @.str.12)
          to label %invoke.cont16 unwind label %lpad15

invoke.cont16:                                    ; preds = %invoke.cont14
  call void @_ZN19OpenColorIO_v2_4dev13GpuShaderText13GpuShaderLineD1Ev(ptr noundef nonnull align 8 dereferenceable(8) %ref.tmp13) #13
  invoke void @_ZNK19OpenColorIO_v2_4dev13GpuShaderText6stringB5cxx11Ev(ptr nonnull sret(%"class.std::__cxx11::basic_string") align 8 %ref.tmp18, ptr noundef nonnull align 8 dereferenceable(764) %st)
          to label %invoke.cont19 unwind label %lpad

invoke.cont19:                                    ; preds = %invoke.cont16
  %call.i2 = invoke noundef nonnull align 8 dereferenceable(32) ptr @_ZNSt7__cxx1112basic_stringIcSt11char_traitsIcESaIcEE6insertEmRKS4_(ptr noundef nonnull align 8 dereferenceable(32) %ref.tmp18, i64 noundef 0, ptr noundef nonnull align 8 dereferenceable(32) %originalFooter)
          to label %invoke.cont21 unwind label %lpad20

invoke.cont21:                                    ; preds = %invoke.cont19
  call void @_ZNSt7__cxx1112basic_stringIcSt11char_traitsIcESaIcEEC1EOS4_(ptr noundef nonnull align 8 dereferenceable(32) %agg.result, ptr noundef nonnull align 8 dereferenceable(32) %call.i2) #13
  call void @_ZNSt7__cxx1112basic_stringIcSt11char_traitsIcESaIcEED1Ev(ptr noundef nonnull align 8 dereferenceable(32) %ref.tmp18) #13
  %m_ossLine.i = getelementptr inbounds i8, ptr %st, i64 384
  call void @_ZNSt7__cxx1119basic_ostringstreamIcSt11char_traitsIcESaIcEED1Ev(ptr noundef nonnull align 8 dereferenceable(112) %m_ossLine.i) #13
  %m_ossText.i = getelementptr inbounds i8, ptr %st, i64 8
  call void @_ZNSt7__cxx1119basic_ostringstreamIcSt11char_traitsIcESaIcEED1Ev(ptr noundef nonnull align 8 dereferenceable(112) %m_ossText.i) #13
  ret void

lpad:                                             ; preds = %invoke.cont16, %invoke.cont11, %invoke.cont3, %entry
  %0 = landingpad { ptr, i32 }
          cleanup
  br label %ehcleanup

lpad2:                                            ; preds = %invoke.cont
  %1 = landingpad { ptr, i32 }
          cleanup
  call void @_ZN19OpenColorIO_v2_4dev13GpuShaderText13GpuShaderLineD1Ev(ptr noundef nonnull align 8 dereferenceable(8) %ref.tmp) #13
  br label %ehcleanup

lpad6:                                            ; preds = %invoke.cont9, %invoke.cont7, %invoke.cont5
  %2 = landingpad { ptr, i32 }
          cleanup
  call void @_ZN19OpenColorIO_v2_4dev13GpuShaderText13GpuShaderLineD1Ev(ptr noundef nonnull align 8 dereferenceable(8) %ref.tmp4) #13
  br label %ehcleanup

lpad15:                                           ; preds = %invoke.cont14
  %3 = landingpad { ptr, i32 }
          cleanup
  call void @_ZN19OpenColorIO_v2_4dev13GpuShaderText13GpuShaderLineD1Ev(ptr noundef nonnull align 8 dereferenceable(8) %ref.tmp13) #13
  br label %ehcleanup

lpad20:                                           ; preds = %invoke.cont19
  %4 = landingpad { ptr, i32 }
          cleanup
  call void @_ZNSt7__cxx1112basic_stringIcSt11char_traitsIcESaIcEED1Ev(ptr noundef nonnull align 8 dereferenceable(32) %ref.tmp18) #13
  br label %ehcleanup

ehcleanup:                                        ; preds = %lpad20, %lpad15, %lpad6, %lpad2, %lpad
  %.pn = phi { ptr, i32 } [ %4, %lpad20 ], [ %0, %lpad ], [ %3, %lpad15 ], [ %2, %lpad6 ], [ %1, %lpad2 ]
  %m_ossLine.i3 = getelementptr inbounds i8, ptr %st, i64 384
  call void @_ZNSt7__cxx1119basic_ostringstreamIcSt11char_traitsIcESaIcEED1Ev(ptr noundef nonnull align 8 dereferenceable(112) %m_ossLine.i3) #13
  %m_ossText.i4 = getelementptr inbounds i8, ptr %st, i64 8
  call void @_ZNSt7__cxx1119basic_ostringstreamIcSt11char_traitsIcESaIcEED1Ev(ptr noundef nonnull align 8 dereferenceable(112) %m_ossText.i4) #13
  resume { ptr, i32 } %.pn
}